target datalayout = "e-m:e-p270:32:32-p271:32:32-p272:64:64-i64:64-i128:128-f80:128-n8:16:32:64-S128"
target triple = "x86_64-pc-linux-gnu"

%struct.UConverterSharedData = type { i32, i32, ptr, ptr, i8, i8, ptr, i32, %struct.UConverterMBCSTable }
%struct.UConverterMBCSTable = type { i8, i8, i8, i32, ptr, ptr, ptr, ptr, ptr, ptr, [64 x i16], ptr, ptr, i32, i8, i8, i8, i16, i32, ptr, ptr, ptr, ptr }
%struct.UConverter = type { ptr, ptr, ptr, ptr, ptr, ptr, ptr, i32, i8, i8, i8, i8, i8, [7 x i8], i32, i32, i32, i32, i8, i8, i8, i8, i8, i8, i8, i8, [8 x i8], [32 x i8], [2 x i16], [2 x i16], [32 x i16], i32, [19 x i16], [31 x i8], i8, i8, i8, i32 }

; Function Attrs: mustprogress uwtable
define internal noundef i32 @_ZL9_extFromUP10UConverterPK20UConverterSharedDataiPPKDsS5_PPhPKhPPiiaP10UErrorCode(ptr noundef %0, ptr noundef %1, i32 noundef %2, ptr noundef %3, ptr noundef %4, ptr noundef %5, ptr noundef %6, ptr noundef %7, i32 noundef %8, i8 noundef signext %9, ptr noundef %10) #0 {
  %12 = alloca i32, align 4
  %13 = alloca ptr, align 8
  %14 = alloca ptr, align 8
  %15 = alloca i32, align 4
  %16 = alloca ptr, align 8
  %17 = alloca ptr, align 8
  %18 = alloca ptr, align 8
  %19 = alloca ptr, align 8
  %20 = alloca ptr, align 8
  %21 = alloca i32, align 4
  %22 = alloca i8, align 1
  %23 = alloca ptr, align 8
  %24 = alloca ptr, align 8
  %25 = alloca i32, align 4
  %26 = alloca ptr, align 8
  %27 = alloca i32, align 4
  %28 = alloca i32, align 4
  %29 = alloca [4 x i8], align 1
  store ptr %0, ptr %13, align 8, !tbaa !60
  store ptr %1, ptr %14, align 8, !tbaa !3
  store i32 %2, ptr %15, align 4, !tbaa !28
  store ptr %3, ptr %16, align 8, !tbaa !105
  store ptr %4, ptr %17, align 8, !tbaa !70
  store ptr %5, ptr %18, align 8, !tbaa !102
  store ptr %6, ptr %19, align 8, !tbaa !39
  store ptr %7, ptr %20, align 8, !tbaa !107
  store i32 %8, ptr %21, align 4, !tbaa !28
  store i8 %9, ptr %22, align 1, !tbaa !40
  store ptr %10, ptr %23, align 8, !tbaa !14
  call void @llvm.lifetime.start.p0(i64 8, ptr %24) #10
  %30 = load ptr, ptr %13, align 8, !tbaa !60
  %31 = getelementptr inbounds nuw %struct.UConverter, ptr %30, i32 0, i32 25
  store i8 0, ptr %31, align 1, !tbaa !140
  %32 = load ptr, ptr %14, align 8, !tbaa !3
  %33 = getelementptr inbounds nuw %struct.UConverterSharedData, ptr %32, i32 0, i32 8
  %34 = getelementptr inbounds nuw %struct.UConverterMBCSTable, ptr %33, i32 0, i32 22
  %35 = load ptr, ptr %34, align 8, !tbaa !109
  store ptr %35, ptr %24, align 8, !tbaa !41
  %36 = icmp ne ptr %35, null
  br i1 %36, label %37, label %52

37:                                               ; preds = %11
  %38 = load ptr, ptr %13, align 8, !tbaa !60
  %39 = load ptr, ptr %24, align 8, !tbaa !41
  %40 = load i32, ptr %15, align 4, !tbaa !28
  %41 = load ptr, ptr %16, align 8, !tbaa !105
  %42 = load ptr, ptr %17, align 8, !tbaa !70
  %43 = load ptr, ptr %18, align 8, !tbaa !102
  %44 = load ptr, ptr %19, align 8, !tbaa !39
  %45 = load ptr, ptr %20, align 8, !tbaa !107
  %46 = load i32, ptr %21, align 4, !tbaa !28
  %47 = load i8, ptr %22, align 1, !tbaa !40
  %48 = load ptr, ptr %23, align 8, !tbaa !14
  %49 = call signext i8 @ucnv_extInitialMatchFromU_77(ptr noundef %38, ptr noundef %39, i32 noundef %40, ptr noundef %41, ptr noundef %42, ptr noundef %43, ptr noundef %44, ptr noundef %45, i32 noundef %46, i8 noundef signext %47, ptr noundef %48)
  %50 = icmp ne i8 %49, 0
  br i1 %50, label %51, label %52

51:                                               ; preds = %37
  store i32 0, ptr %12, align 4
  store i32 1, ptr %25, align 4
  br label %133

52:                                               ; preds = %37, %11
  %53 = load ptr, ptr %13, align 8, !tbaa !60
  %54 = getelementptr inbounds nuw %struct.UConverter, ptr %53, i32 0, i32 7
  %55 = load i32, ptr %54, align 8, !tbaa !73
  %56 = and i32 %55, 32768
  %57 = icmp ne i32 %56, 0
  br i1 %57, label %58, label %130

58:                                               ; preds = %52
  call void @llvm.lifetime.start.p0(i64 8, ptr %26) #10
  call void @llvm.lifetime.start.p0(i64 4, ptr %27) #10
  store ptr @_ZL13gb18030Ranges, ptr %26, align 8, !tbaa !41
  store i32 0, ptr %27, align 4, !tbaa !28
  br label %59

59:                                               ; preds = %121, %58
  %60 = load i32, ptr %27, align 4, !tbaa !28
  %61 = icmp slt i32 %60, 14
  br i1 %61, label %62, label %126

62:                                               ; preds = %59
  %63 = load ptr, ptr %26, align 8, !tbaa !41
  %64 = getelementptr inbounds i32, ptr %63, i64 0
  %65 = load i32, ptr %64, align 4, !tbaa !28
  %66 = load i32, ptr %15, align 4, !tbaa !28
  %67 = icmp ule i32 %65, %66
  br i1 %67, label %68, label %120

68:                                               ; preds = %62
  %69 = load i32, ptr %15, align 4, !tbaa !28
  %70 = load ptr, ptr %26, align 8, !tbaa !41
  %71 = getelementptr inbounds i32, ptr %70, i64 1
  %72 = load i32, ptr %71, align 4, !tbaa !28
  %73 = icmp ule i32 %69, %72
  br i1 %73, label %74, label %120

74:                                               ; preds = %68
  call void @llvm.lifetime.start.p0(i64 4, ptr %28) #10
  call void @llvm.lifetime.start.p0(i64 4, ptr %29) #10
  %75 = load ptr, ptr %26, align 8, !tbaa !41
  %76 = getelementptr inbounds i32, ptr %75, i64 2
  %77 = load i32, ptr %76, align 4, !tbaa !28
  %78 = zext i32 %77 to i64
  %79 = sub nsw i64 %78, 1687218
  %80 = trunc i64 %79 to i32
  store i32 %80, ptr %28, align 4, !tbaa !28
  %81 = load i32, ptr %15, align 4, !tbaa !28
  %82 = load ptr, ptr %26, align 8, !tbaa !41
  %83 = getelementptr inbounds i32, ptr %82, i64 0
  %84 = load i32, ptr %83, align 4, !tbaa !28
  %85 = sub i32 %81, %84
  %86 = load i32, ptr %28, align 4, !tbaa !28
  %87 = add i32 %86, %85
  store i32 %87, ptr %28, align 4, !tbaa !28
  %88 = load i32, ptr %28, align 4, !tbaa !28
  %89 = urem i32 %88, 10
  %90 = add i32 48, %89
  %91 = trunc i32 %90 to i8
  %92 = getelementptr inbounds [4 x i8], ptr %29, i64 0, i64 3
  store i8 %91, ptr %92, align 1, !tbaa !40
  %93 = load i32, ptr %28, align 4, !tbaa !28
  %94 = udiv i32 %93, 10
  store i32 %94, ptr %28, align 4, !tbaa !28
  %95 = load i32, ptr %28, align 4, !tbaa !28
  %96 = urem i32 %95, 126
  %97 = add i32 129, %96
  %98 = trunc i32 %97 to i8
  %99 = getelementptr inbounds [4 x i8], ptr %29, i64 0, i64 2
  store i8 %98, ptr %99, align 1, !tbaa !40
  %100 = load i32, ptr %28, align 4, !tbaa !28
  %101 = udiv i32 %100, 126
  store i32 %101, ptr %28, align 4, !tbaa !28
  %102 = load i32, ptr %28, align 4, !tbaa !28
  %103 = urem i32 %102, 10
  %104 = add i32 48, %103
  %105 = trunc i32 %104 to i8
  %106 = getelementptr inbounds [4 x i8], ptr %29, i64 0, i64 1
  store i8 %105, ptr %106, align 1, !tbaa !40
  %107 = load i32, ptr %28, align 4, !tbaa !28
  %108 = udiv i32 %107, 10
  store i32 %108, ptr %28, align 4, !tbaa !28
  %109 = load i32, ptr %28, align 4, !tbaa !28
  %110 = add i32 129, %109
  %111 = trunc i32 %110 to i8
  %112 = getelementptr inbounds [4 x i8], ptr %29, i64 0, i64 0
  store i8 %111, ptr %112, align 1, !tbaa !40
  %113 = load ptr, ptr %13, align 8, !tbaa !60
  %114 = getelementptr inbounds [4 x i8], ptr %29, i64 0, i64 0
  %115 = load ptr, ptr %18, align 8, !tbaa !102
  %116 = load ptr, ptr %19, align 8, !tbaa !39
  %117 = load ptr, ptr %20, align 8, !tbaa !107
  %118 = load i32, ptr %21, align 4, !tbaa !28
  %119 = load ptr, ptr %23, align 8, !tbaa !14
  call void @ucnv_fromUWriteBytes_77(ptr noundef %113, ptr noundef %114, i32 noundef 4, ptr noundef %115, ptr noundef %116, ptr noundef %117, i32 noundef %118, ptr noundef %119)
  store i32 0, ptr %12, align 4
  store i32 1, ptr %25, align 4
  call void @llvm.lifetime.end.p0(i64 4, ptr %29) #10
  call void @llvm.lifetime.end.p0(i64 4, ptr %28) #10
  br label %127

120:                                              ; preds = %68, %62
  br label %121

121:                                              ; preds = %120
  %122 = load ptr, ptr %26, align 8, !tbaa !41
  %123 = getelementptr inbounds i32, ptr %122, i64 4
  store ptr %123, ptr %26, align 8, !tbaa !41
  %124 = load i32, ptr %27, align 4, !tbaa !28
  %125 = add nsw i32 %124, 1
  store i32 %125, ptr %27, align 4, !tbaa !28
  br label %59, !llvm.loop !141

126:                                              ; preds = %59
  store i32 0, ptr %25, align 4
  br label %127

127:                                              ; preds = %126, %74
  call void @llvm.lifetime.end.p0(i64 4, ptr %27) #10
  call void @llvm.lifetime.end.p0(i64 8, ptr %26) #10
  %128 = load i32, ptr %25, align 4
  switch i32 %128, label %133 [
    i32 0, label %129
  ]

129:                                              ; preds = %127
  br label %130

130:                                              ; preds = %129, %52
  %131 = load ptr, ptr %23, align 8, !tbaa !14
  store i32 10, ptr %131, align 4, !tbaa !48
  %132 = load i32, ptr %15, align 4, !tbaa !28
  store i32 %132, ptr %12, align 4
  store i32 1, ptr %25, align 4
  br label %133

133:                                              ; preds = %130, %127, %51
  call void @llvm.lifetime.end.p0(i64 8, ptr %24) #10
  %134 = load i32, ptr %12, align 4
  ret i32 %134
}