; Function Attrs: mustprogress uwtable
define internal fastcc noundef i32 @_ZL9_extFromUP10UConverterPK20UConverterSharedDataiPPKDsS5_PPhPKhPPiiaP10UErrorCode(ptr noundef initializes((95, 96)) %0, ptr %.288.val, i32 noundef %1, ptr noundef nonnull %2, ptr noundef %3, ptr noundef nonnull %4, ptr noundef %5, ptr noundef %6, i32 noundef %7, i8 noundef signext %8, ptr noundef %9) unnamed_addr #0 {
  %11 = alloca [4 x i8], align 1
  %12 = getelementptr inbounds nuw i8, ptr %0, i64 95
  store i8 0, ptr %12, align 1, !tbaa !114
  %.not = icmp eq ptr %.288.val, null
  br i1 %.not, label %15, label %13

13:                                               ; preds = %10
  %14 = tail call signext i8 @ucnv_extInitialMatchFromU_77(ptr noundef nonnull %0, ptr noundef nonnull %.288.val, i32 noundef %1, ptr noundef nonnull %2, ptr noundef %3, ptr noundef nonnull %4, ptr noundef %5, ptr noundef %6, i32 noundef %7, i8 noundef signext %8, ptr noundef %9)
  %.not46 = icmp eq i8 %14, 0
  br i1 %.not46, label %15, label %49

15:                                               ; preds = %13, %10
  %16 = getelementptr inbounds nuw i8, ptr %0, i64 56
  %17 = load i32, ptr %16, align 8, !tbaa !60
  %18 = and i32 %17, 32768
  %.not47 = icmp eq i32 %18, 0
  br i1 %.not47, label %.critedge, label %.preheader

.preheader:                                       ; preds = %15, %46
  %.0413 = phi i32 [ %48, %46 ], [ 0, %15 ]
  %.0422 = phi ptr [ %47, %46 ], [ @_ZL13gb18030Ranges, %15 ]
  %19 = load i32, ptr %.0422, align 4, !tbaa !27
  %.not48 = icmp ugt i32 %19, %1
  br i1 %.not48, label %46, label %20

20:                                               ; preds = %.preheader
  %21 = getelementptr inbounds nuw i8, ptr %.0422, i64 4
  %22 = load i32, ptr %21, align 4, !tbaa !27
  %.not49 = icmp ugt i32 %1, %22
  br i1 %.not49, label %46, label %23

23:                                               ; preds = %20
  call void @llvm.lifetime.start.p0(i64 4, ptr nonnull %11) #15
  %24 = getelementptr inbounds nuw i8, ptr %.0422, i64 8
  %25 = load i32, ptr %24, align 4, !tbaa !27
  %26 = sub i32 %1, %19
  %27 = add i32 %26, -1687218
  %28 = add i32 %27, %25
  %29 = urem i32 %28, 10
  %30 = trunc nuw nsw i32 %29 to i8
  %31 = or disjoint i8 %30, 48
  %32 = getelementptr inbounds nuw i8, ptr %11, i64 3
  store i8 %31, ptr %32, align 1, !tbaa !28
  %33 = udiv i32 %28, 10
  %34 = urem i32 %33, 126
  %35 = trunc nuw nsw i32 %34 to i8
  %36 = add nuw nsw i8 %35, -127
  %37 = getelementptr inbounds nuw i8, ptr %11, i64 2
  store i8 %36, ptr %37, align 1, !tbaa !28
  %38 = udiv i32 %28, 1260
  %39 = urem i32 %38, 10
  %40 = trunc nuw nsw i32 %39 to i8
  %41 = or disjoint i8 %40, 48
  %42 = getelementptr inbounds nuw i8, ptr %11, i64 1
  store i8 %41, ptr %42, align 1, !tbaa !28
  %43 = udiv i32 %28, 12600
  %44 = trunc i32 %43 to i8
  %45 = add i8 %44, -127
  store i8 %45, ptr %11, align 1, !tbaa !28
  call void @ucnv_fromUWriteBytes_77(ptr noundef %0, ptr noundef nonnull %11, i32 noundef 4, ptr noundef nonnull %4, ptr noundef %5, ptr noundef %6, i32 noundef %7, ptr noundef %9)
  call void @llvm.lifetime.end.p0(i64 4, ptr nonnull %11) #15
  br label %49

46:                                               ; preds = %.preheader, %20
  %47 = getelementptr inbounds nuw i8, ptr %.0422, i64 16
  %48 = add nuw nsw i32 %.0413, 1
  %exitcond = icmp eq i32 %48, 14
  br i1 %exitcond, label %.critedge, label %.preheader, !llvm.loop !115

.critedge:                                        ; preds = %46, %15
  store i32 10, ptr %9, align 4, !tbaa !35
  br label %49

49:                                               ; preds = %23, %13, %.critedge
  %.0 = phi i32 [ %1, %.critedge ], [ 0, %23 ], [ 0, %13 ]
  ret i32 %.0
}